; Function Attrs: mustprogress uwtable
define void @_ZN7rocksdb16ThreadStatusUtil18SetThreadOperationENS_12ThreadStatus13OperationTypeE(i32 noundef %0) local_unnamed_addr #3 align 2 {
  %2 = tail call align 8 ptr @llvm.threadlocal.address.p0(ptr align 8 @_ZN7rocksdb16ThreadStatusUtil27thread_updater_local_cache_E)
  %3 = load ptr, ptr %2, align 8, !tbaa !18
  %4 = icmp eq ptr %3, null
  br i1 %4, label %17, label %5

5:                                                ; preds = %1
  %.not = icmp eq i32 %0, 0
  br i1 %.not, label %14, label %6

6:                                                ; preds = %5
  %7 = tail call noundef nonnull align 8 dereferenceable(16) ptr @_ZN7rocksdb11SystemClock7DefaultEv()
  %8 = load ptr, ptr %7, align 8, !tbaa !22
  %9 = load ptr, ptr %8, align 8, !tbaa !20
  %10 = getelementptr inbounds nuw i8, ptr %9, i64 152
  %11 = load ptr, ptr %10, align 8
  %12 = tail call noundef i64 %11(ptr noundef nonnull align 8 dereferenceable(32) %8)
  %13 = load ptr, ptr %2, align 8, !tbaa !18
  tail call void @_ZN7rocksdb19ThreadStatusUpdater21SetOperationStartTimeEm(ptr noundef nonnull align 8 dereferenceable(216) %13, i64 noundef %12)
  br label %15

14:                                               ; preds = %5
  tail call void @_ZN7rocksdb19ThreadStatusUpdater21SetOperationStartTimeEm(ptr noundef nonnull align 8 dereferenceable(216) %3, i64 noundef 0)
  br label %15

15:                                               ; preds = %14, %6
  %16 = load ptr, ptr %2, align 8, !tbaa !18
  tail call void @_ZN7rocksdb19ThreadStatusUpdater18SetThreadOperationENS_12ThreadStatus13OperationTypeE(ptr noundef nonnull align 8 dereferenceable(216) %16, i32 noundef %0)
  br label %17

17:                                               ; preds = %1, %15
  ret void
}